; ModuleID = 'source-C-CXX/9/2265.cpp'
source_filename = "source-C-CXX/9/2265.cpp"
target datalayout = "e-m:e-p270:32:32-p271:32:32-p272:64:64-i64:64-f80:128-n8:16:32:64-S128"
target triple = "x86_64-pc-linux-gnu"

%"class.std::ios_base::Init" = type { i8 }
%"class.std::basic_istream" = type { i32 (...)**, i64, %"class.std::basic_ios" }
%"class.std::basic_ios" = type { %"class.std::ios_base", %"class.std::basic_ostream"*, i8, i8, %"class.std::basic_streambuf"*, %"class.std::ctype"*, %"class.std::num_put"*, %"class.std::num_get"* }
%"class.std::ios_base" = type { i32 (...)**, i64, i64, i32, i32, i32, %"struct.std::ios_base::_Callback_list"*, %"struct.std::ios_base::_Words", [8 x %"struct.std::ios_base::_Words"], i32, %"struct.std::ios_base::_Words"*, %"class.std::locale" }
%"struct.std::ios_base::_Callback_list" = type { %"struct.std::ios_base::_Callback_list"*, void (i32, %"class.std::ios_base"*, i32)*, i32, i32 }
%"struct.std::ios_base::_Words" = type { i8*, i64 }
%"class.std::locale" = type { %"class.std::locale::_Impl"* }
%"class.std::locale::_Impl" = type { i32, %"class.std::locale::facet"**, i64, %"class.std::locale::facet"**, i8** }
%"class.std::locale::facet" = type <{ i32 (...)**, i32, [4 x i8] }>
%"class.std::basic_ostream" = type { i32 (...)**, %"class.std::basic_ios" }
%"class.std::basic_streambuf" = type { i32 (...)**, i8*, i8*, i8*, i8*, i8*, i8*, %"class.std::locale" }
%"class.std::ctype" = type <{ %"class.std::locale::facet.base", [4 x i8], %struct.__locale_struct*, i8, [7 x i8], i32*, i32*, i16*, i8, [256 x i8], [256 x i8], i8, [6 x i8] }>
%"class.std::locale::facet.base" = type <{ i32 (...)**, i32 }>
%struct.__locale_struct = type { [13 x %struct.__locale_data*], i16*, i32*, i32*, [13 x i8*] }
%struct.__locale_data = type opaque
%"class.std::num_put" = type { %"class.std::locale::facet.base", [4 x i8] }
%"class.std::num_get" = type { %"class.std::locale::facet.base", [4 x i8] }

@_ZStL8__ioinit = internal global %"class.std::ios_base::Init" zeroinitializer, align 1
@__dso_handle = external hidden global i8
@_ZSt3cin = external global %"class.std::basic_istream", align 8
@_ZSt4cout = external global %"class.std::basic_ostream", align 8
@llvm.global_ctors = appending global [1 x { i32, void ()*, i8* }] [{ i32, void ()*, i8* } { i32 65535, void ()* @_GLOBAL__sub_I_2265.cpp, i8* null }]

declare void @_ZNSt8ios_base4InitC1Ev(%"class.std::ios_base::Init"* nonnull align 1 dereferenceable(1)) unnamed_addr #0

; Function Attrs: nounwind
declare void @_ZNSt8ios_base4InitD1Ev(%"class.std::ios_base::Init"* nonnull align 1 dereferenceable(1)) unnamed_addr #1

; Function Attrs: nofree nounwind
declare i32 @__cxa_atexit(void (i8*)*, i8*, i8*) local_unnamed_addr #2

; Function Attrs: mustprogress norecurse sspstrong uwtable
define dso_local i32 @main() local_unnamed_addr #3 {
  %1 = alloca [26 x i32], align 16
  %2 = alloca [26 x i32], align 16
  %3 = alloca i32, align 4
  %4 = bitcast [26 x i32]* %1 to i8*
  call void @llvm.lifetime.start.p0i8(i64 104, i8* nonnull %4) #6
  %5 = bitcast [26 x i32]* %2 to i8*
  call void @llvm.lifetime.start.p0i8(i64 104, i8* nonnull %5) #6
  %6 = bitcast i32* %3 to i8*
  call void @llvm.lifetime.start.p0i8(i64 4, i8* nonnull %6) #6
  %7 = call nonnull align 8 dereferenceable(16) %"class.std::basic_istream"* @_ZNSirsERi(%"class.std::basic_istream"* nonnull align 8 dereferenceable(16) @_ZSt3cin, i32* nonnull align 4 dereferenceable(4) %3)
  %8 = load i32, i32* %3, align 4, !tbaa !5
  %9 = icmp slt i32 %8, 1
  br i1 %9, label %75, label %15

10:                                               ; preds = %15
  %11 = icmp slt i32 %21, 2
  br i1 %11, label %75, label %12

12:                                               ; preds = %10
  %13 = add nuw i32 %21, 1
  %14 = zext i32 %13 to i64
  br label %24

15:                                               ; preds = %0, %15
  %16 = phi i64 [ %20, %15 ], [ 1, %0 ]
  %17 = getelementptr inbounds [26 x i32], [26 x i32]* %2, i64 0, i64 %16
  %18 = call nonnull align 8 dereferenceable(16) %"class.std::basic_istream"* @_ZNSirsERi(%"class.std::basic_istream"* nonnull align 8 dereferenceable(16) @_ZSt3cin, i32* nonnull align 4 dereferenceable(4) %17)
  %19 = getelementptr inbounds [26 x i32], [26 x i32]* %1, i64 0, i64 %16
  store i32 1, i32* %19, align 4, !tbaa !5
  %20 = add nuw nsw i64 %16, 1
  %21 = load i32, i32* %3, align 4, !tbaa !5
  %22 = sext i32 %21 to i64
  %23 = icmp slt i64 %16, %22
  br i1 %23, label %15, label %10, !llvm.loop !9

24:                                               ; preds = %12, %68
  %25 = phi i64 [ 0, %12 ], [ %74, %68 ]
  %26 = phi i64 [ 2, %12 ], [ %72, %68 ]
  %27 = phi i32 [ 1, %12 ], [ %71, %68 ]
  %28 = add i64 %25, 1
  %29 = getelementptr inbounds [26 x i32], [26 x i32]* %2, i64 0, i64 %26
  %30 = load i32, i32* %29, align 4, !tbaa !5
  %31 = getelementptr inbounds [26 x i32], [26 x i32]* %1, i64 0, i64 %26
  %32 = and i64 %28, 1
  %33 = icmp eq i64 %25, 0
  br i1 %33, label %54, label %34

34:                                               ; preds = %24
  %35 = and i64 %28, -2
  br label %36

36:                                               ; preds = %85, %34
  %37 = phi i64 [ 1, %34 ], [ %86, %85 ]
  %38 = phi i64 [ %35, %34 ], [ %87, %85 ]
  %39 = getelementptr inbounds [26 x i32], [26 x i32]* %2, i64 0, i64 %37
  %40 = load i32, i32* %39, align 4, !tbaa !5
  %41 = icmp slt i32 %40, %30
  br i1 %41, label %49, label %42

42:                                               ; preds = %36
  %43 = getelementptr inbounds [26 x i32], [26 x i32]* %1, i64 0, i64 %37
  %44 = load i32, i32* %43, align 4, !tbaa !5
  %45 = add nsw i32 %44, 1
  %46 = load i32, i32* %31, align 4, !tbaa !5
  %47 = icmp sgt i32 %46, %44
  %48 = select i1 %47, i32 %46, i32 %45
  store i32 %48, i32* %31, align 4, !tbaa !5
  br label %49

49:                                               ; preds = %36, %42
  %50 = add nuw nsw i64 %37, 1
  %51 = getelementptr inbounds [26 x i32], [26 x i32]* %2, i64 0, i64 %50
  %52 = load i32, i32* %51, align 4, !tbaa !5
  %53 = icmp slt i32 %52, %30
  br i1 %53, label %85, label %78

54:                                               ; preds = %85, %24
  %55 = phi i64 [ 1, %24 ], [ %86, %85 ]
  %56 = icmp eq i64 %32, 0
  br i1 %56, label %68, label %57

57:                                               ; preds = %54
  %58 = getelementptr inbounds [26 x i32], [26 x i32]* %2, i64 0, i64 %55
  %59 = load i32, i32* %58, align 4, !tbaa !5
  %60 = icmp slt i32 %59, %30
  br i1 %60, label %68, label %61

61:                                               ; preds = %57
  %62 = getelementptr inbounds [26 x i32], [26 x i32]* %1, i64 0, i64 %55
  %63 = load i32, i32* %62, align 4, !tbaa !5
  %64 = add nsw i32 %63, 1
  %65 = load i32, i32* %31, align 4, !tbaa !5
  %66 = icmp sgt i32 %65, %63
  %67 = select i1 %66, i32 %65, i32 %64
  store i32 %67, i32* %31, align 4, !tbaa !5
  br label %68

68:                                               ; preds = %61, %57, %54
  %69 = load i32, i32* %31, align 4, !tbaa !5
  %70 = icmp slt i32 %27, %69
  %71 = select i1 %70, i32 %69, i32 %27
  %72 = add nuw nsw i64 %26, 1
  %73 = icmp eq i64 %72, %14
  %74 = add i64 %25, 1
  br i1 %73, label %75, label %24, !llvm.loop !11

75:                                               ; preds = %68, %0, %10
  %76 = phi i32 [ 1, %10 ], [ 1, %0 ], [ %71, %68 ]
  %77 = call nonnull align 8 dereferenceable(8) %"class.std::basic_ostream"* @_ZNSolsEi(%"class.std::basic_ostream"* nonnull align 8 dereferenceable(8) @_ZSt4cout, i32 %76)
  call void @llvm.lifetime.end.p0i8(i64 4, i8* nonnull %6) #6
  call void @llvm.lifetime.end.p0i8(i64 104, i8* nonnull %5) #6
  call void @llvm.lifetime.end.p0i8(i64 104, i8* nonnull %4) #6
  ret i32 0

78:                                               ; preds = %49
  %79 = getelementptr inbounds [26 x i32], [26 x i32]* %1, i64 0, i64 %50
  %80 = load i32, i32* %79, align 4, !tbaa !5
  %81 = add nsw i32 %80, 1
  %82 = load i32, i32* %31, align 4, !tbaa !5
  %83 = icmp sgt i32 %82, %80
  %84 = select i1 %83, i32 %82, i32 %81
  store i32 %84, i32* %31, align 4, !tbaa !5
  br label %85

85:                                               ; preds = %78, %49
  %86 = add nuw nsw i64 %37, 2
  %87 = add i64 %38, -2
  %88 = icmp eq i64 %87, 0
  br i1 %88, label %54, label %36, !llvm.loop !12
}

; Function Attrs: argmemonly mustprogress nofree nosync nounwind willreturn
declare void @llvm.lifetime.start.p0i8(i64 immarg, i8* nocapture) #4

declare nonnull align 8 dereferenceable(16) %"class.std::basic_istream"* @_ZNSirsERi(%"class.std::basic_istream"* nonnull align 8 dereferenceable(16), i32* nonnull align 4 dereferenceable(4)) local_unnamed_addr #0

; Function Attrs: argmemonly mustprogress nofree nosync nounwind willreturn
declare void @llvm.lifetime.end.p0i8(i64 immarg, i8* nocapture) #4

declare nonnull align 8 dereferenceable(8) %"class.std::basic_ostream"* @_ZNSolsEi(%"class.std::basic_ostream"* nonnull align 8 dereferenceable(8), i32) local_unnamed_addr #0

; Function Attrs: sspstrong uwtable
define internal void @_GLOBAL__sub_I_2265.cpp() #5 section ".text.startup" {
  tail call void @_ZNSt8ios_base4InitC1Ev(%"class.std::ios_base::Init"* nonnull align 1 dereferenceable(1) @_ZStL8__ioinit)
  %1 = tail call i32 @__cxa_atexit(void (i8*)* bitcast (void (%"class.std::ios_base::Init"*)* @_ZNSt8ios_base4InitD1Ev to void (i8*)*), i8* getelementptr inbounds (%"class.std::ios_base::Init", %"class.std::ios_base::Init"* @_ZStL8__ioinit, i64 0, i32 0), i8* nonnull @__dso_handle) #6
  ret void
}


!llvm.module.flags = !{!0, !1, !2, !3}
!llvm.ident = !{!4}

!0 = !{i32 1, !"wchar_size", i32 4}
!1 = !{i32 7, !"PIC Level", i32 2}
!2 = !{i32 7, !"PIE Level", i32 2}
!3 = !{i32 7, !"uwtable", i32 1}
!4 = !{!"clang version 13.0.0"}
!5 = !{!6, !6, i64 0}
!6 = !{!"int", !7, i64 0}
!7 = !{!"omnipotent char", !8, i64 0}
!8 = !{!"Simple C++ TBAA"}
!9 = distinct !{!9, !10}
!10 = !{!"llvm.loop.mustprogress"}
!11 = distinct !{!11, !10}
!12 = distinct !{!12, !10}
